(dp0
L10023936L
(dp1
S'vps'
p2
(lp3
(dp4
S'is_affected'
p5
I1
sS'path'
p6
V60501 13335 141742
p7
sS'asn'
p8
V60501
p9
sa(dp10
g5
I0
sg6
V199524 6939 141742
p11
sg8
V199524
p12
sa(dp13
g5
I0
sg6
V59414 6939 141742
p14
sg8
V59414
p15
sa(dp16
g5
I0
sg6
V50673 6939 141742
p17
sg8
V50673
p18
sa(dp19
g5
I1
sg6
V6762 13335 141742
p20
sg8
V6762
p21
sa(dp22
g5
I0
sg6
V29222 6939 141742
p23
sg8
V29222
p24
sa(dp25
g5
I0
sg6
V62167 6939 141742
p26
sg8
V62167
p27
sa(dp28
g5
I0
sg6
V199524 6939 141742
p29
sg8
V199524
p30
sa(dp31
g5
I0
sg6
V50869 6939 141742
p32
sg8
V50869
p33
sa(dp34
g5
I0
sg6
V34288 6939 141742
p35
sg8
V34288
p36
sa(dp37
g5
I0
sg6
V51184 6939 141742
p38
sg8
V51184
p39
sa(dp40
g5
I0
sg6
V34927 6939 141742
p41
sg8
V34927
p42
sa(dp43
g5
I0
sg6
V8455 6939 141742
p44
sg8
V8455
p45
sa(dp46
g5
I0
sg6
V34927 6939 141742
p47
sg8
V34927
p48
sa(dp49
g5
I1
sg6
V267613 16735 13335 141742
p50
sg8
V267613
p51
sa(dp52
g5
I1
sg6
V267613 16735 13335 141742
p53
sg8
V267613
p54
sa(dp55
g5
I0
sg6
V263702 12956 6939 141742
p56
sg8
V263702
p57
sa(dp58
g5
I0
sg6
V8218 6939 141742
p59
sg8
V8218
p60
sa(dp61
g5
I0
sg6
V8218 6939 141742
p62
sg8
V8218
p63
sa(dp64
g5
I1
sg6
V201333 6762 13335 141742
p65
sg8
V201333
p66
sa(dp67
g5
I1
sg6
V1299 13335 141742
p68
sg8
V1299
p69
sa(dp70
g5
I0
sg6
V199524 6939 141742
p71
sg8
V199524
p72
sa(dp73
g5
I0
sg6
V19151 6939 141742
p74
sg8
V19151
p75
sa(dp76
g5
I1
sg6
V14061 3356 13335 141742
p77
sg8
V14061
p78
sa(dp79
g5
I0
sg6
V14061 6939 141742
p80
sg8
V14061
p81
sa(dp82
g5
I0
sg6
V14907 6939 141742
p83
sg8
V14907
p84
sa(dp85
g5
I1
sg6
V57199 13335 141742
p86
sg8
V57199
p87
sa(dp88
g5
I1
sg6
V14061 3356 13335 141742
p89
sg8
V14061
p90
sa(dp91
g5
I1
sg6
V14061 1299 13335 141742
p92
sg8
V14061
p93
sa(dp94
g5
I0
sg6
V34019 6939 141742
p95
sg8
V34019
p96
sa(dp97
g5
I0
sg6
V267613 6939 141742
p98
sg8
V267613
p99
sa(dp100
g5
I0
sg6
V199524 6939 141742
p101
sg8
V199524
p102
sa(dp103
g5
I1
sg6
V267613 16735 13335 141742
p104
sg8
V267613
p105
sa(dp106
g5
I0
sg6
V34019 6939 141742
p107
sg8
V34019
p108
sa(dp109
g5
I1
sg6
V34549 5511 13335 141742
p110
sg8
V34549
p111
sa(dp112
g5
I0
sg6
V64271 6939 141742
p113
sg8
V64271
p114
sa(dp115
g5
I0
sg6
V15547 6939 141742
p116
sg8
V15547
p117
sa(dp118
g5
I1
sg6
V34549 5511 13335 141742
p119
sg8
V34549
p120
sa(dp121
g5
I0
sg6
V9304 6939 141742
p122
sg8
V9304
p123
sa(dp124
g5
I1
sg6
V9304 13335 141742
p125
sg8
V9304
p126
sa(dp127
g5
I1
sg6
V6762 13335 141742
p128
sg8
V6762
p129
sa(dp130
g5
I1
sg6
V1299 13335 141742
p131
sg8
V1299
p132
sa(dp133
g5
I1
sg6
V204092 57199 13335 141742
p134
sg8
V204092
p135
sa(dp136
g5
I0
sg6
V8218 6939 141742
p137
sg8
V8218
p138
sa(dp139
g5
I0
sg6
V35426 6939 141742
p140
sg8
V35426
p141
sa(dp142
g5
I0
sg6
V48362 6939 141742
p143
sg8
V48362
p144
sa(dp145
g5
I1
sg6
V22548 12956 13335 141742
p146
sg8
V22548
p147
sa(dp148
g5
I1
sg6
V15692 2914 13335 141742
p149
sg8
V15692
p150
sa(dp151
g5
I1
sg6
V1299 13335 141742
p152
sg8
V1299
p153
sasS'oldhomeas'
p154
S'0'
p155
sS'bad_path_segment'
p156
V13335 141742
p157
sS'alarm_id'
p158
L10023936L
sS'newhomeas'
p159
S'0'
p160
sS'type'
p161
I1
ssL10014496L
(dp162
g2
(lp163
(dp164
g5
I0
sg6
V328474 328112 37271 3356 9050 39668 49256
p165
sg8
V328474
p166
sa(dp167
g5
I1
sg6
V206499 50629 9050 49256
p168
sg8
V206499
p169
sa(dp170
g5
I1
sg6
V48821 50629 9050 49256
p171
sg8
V48821
p172
sa(dp173
g5
I0
sg6
V49432 48362 5606 39668 49256
p174
sg8
V49432
p175
sa(dp176
g5
I0
sg6
V204092 174 6762 9050 39668 49256
p177
sg8
V204092
p178
sa(dp179
g5
I1
sg6
V6908 2914 9050 49256
p180
sg8
V6908
p181
sa(dp182
g5
I0
sg6
V56430 12310 9050 39668 49256
p183
sg8
V56430
p184
sa(dp185
g5
I1
sg6
V2497 9050 49256
p186
sg8
V2497
p187
sa(dp188
g5
I0
sg6
V199524 3491 3257 5606 39668 49256
p189
sg8
V199524
p190
sa(dp191
g5
I0
sg6
V132825 2914 3356 9050 39668 49256
p192
sg8
V132825
p193
sa(dp194
g5
I0
sg6
V199524 174 3356 9050 39668 49256
p195
sg8
V199524
p196
sa(dp197
g5
I1
sg6
V25091 9050 49256
p198
sg8
V25091
p199
sa(dp200
g5
I1
sg6
V37989 4844 2914 9050 49256
p201
sg8
V37989
p202
sa(dp203
g5
I1
sg6
V198249 9050 49256
p204
sg8
V198249
p205
sa(dp206
g5
I0
sg6
V48919 174 6762 9050 39668 49256
p207
sg8
V48919
p208
sa(dp209
g5
I0
sg6
V59414 3303 6939 9050 39668 49256
p210
sg8
V59414
p211
sa(dp212
g5
I0
sg6
V202194 6893 174 3356 9050 39668 49256
p213
sg8
V202194
p214
sa(dp215
g5
I1
sg6
V49134 53356 6939 9050 49256
p216
sg8
V49134
p217
sa(dp218
g5
I0
sg6
V49134 53356 60011 6939 9050 39668 49256
p219
sg8
V49134
p220
sa(dp221
g5
I1
sg6
V49134 53356 60011 3356 9050 49256
p222
sg8
V49134
p223
sa(dp224
g5
I0
sg6
V59414 3303 174 6762 9050 39668 49256
p225
sg8
V59414
p226
sa(dp227
g5
I0
sg6
V11708 15164 6939 9050 39668 49256
p228
sg8
V11708
p229
sa(dp230
g5
I0
sg6
V20205 174 6762 9050 39668 49256
p231
sg8
V20205
p232
sa(dp233
g5
I1
sg6
V29222 3356 9050 49256
p234
sg8
V29222
p235
sa(dp236
g5
I1
sg6
V51873 9002 9050 49256
p237
sg8
V51873
p238
sa(dp239
g5
I0
sg6
V51184 1764 174 6762 9050 39668 49256
p240
sg8
V51184
p241
sa(dp242
g5
I0
sg6
V29222 3303 174 6762 9050 39668 49256
p243
sg8
V29222
p244
sasg154
S'0'
p245
sg156
V9050 49256
p246
sg158
L10014496L
sg159
S'0'
p247
sg161
I1
ssL10029548L
(dp248
g2
(lp249
(dp250
g5
I1
sg6
V3491 3356 30962 208545
p251
sg8
V3491
p252
sa(dp253
g5
I0
sg6
V44103 57866 6830 3320 8820 208545
p254
sg8
V44103
p255
sasg154
S'0'
p256
sg156
V30962 208545
p257
sg158
L10029548L
sg159
S'0'
p258
sg161
I1
ssL10020269L
(dp259
g2
(lp260
(dp261
g5
I1
sg6
V49752 50629 2914 19905 20773
p262
sg8
V49752
p263
sa(dp264
g5
I1
sg6
V47147 2914 19905 20773
p265
sg8
V47147
p266
sa(dp267
g5
I1
sg6
V47147 2914 174 22822 19905 20773
p268
sg8
V47147
p269
sa(dp270
g5
I1
sg6
V7575 2914 19905 20773
p271
sg8
V7575
p272
sa(dp273
g5
I1
sg6
V201333 6762 2914 19905 20773
p274
sg8
V201333
p275
sasg154
S'29066'
p276
sg156
V
p277
sg158
L10020269L
sg159
S'20773'
p278
sg161
I0
ssL10015888L
(dp279
g2
(lp280
(dp281
g5
I1
sg6
V207044 3257 2914 45474 263009 52993
p282
sg8
V207044
p283
sasg154
S'61670'
p284
sg156
g277
sg158
L10015888L
sg159
S'52993'
p285
sg161
I0
ssL10028627L
(dp286
g2
(lp287
(dp288
g5
I1
sg6
V54574 6461 1299 50313 39153 56690
p289
sg8
V54574
p290
sa(dp291
g5
I1
sg6
V2497 1299 50313 39153 56690
p292
sg8
V2497
p293
sa(dp294
g5
I1
sg6
V20514 1299 50313 39153 56690
p295
sg8
V20514
p296
sa(dp297
g5
I0
sg6
V132825 3491 1299 50313 12314 56690
p298
sg8
V132825
p299
sa(dp300
g5
I0
sg6
V53070 2914 1299 50313 12314 56690
p301
sg8
V53070
p302
sa(dp303
g5
I0
sg6
V35266 2914 1299 50313 12314 56690
p304
sg8
V35266
p305
sasg154
S'0'
p306
sg156
V50313 39153
p307
sg158
L10028627L
sg159
S'0'
p308
sg161
I1
ssL10014932L
(dp309
g2
(lp310
(dp311
g5
I1
sg6
V199524 1299 6939 136106 38525 9340 13150
p312
sg8
V199524
p313
sa(dp314
g5
I1
sg6
V209102 6939 136106 38525 9340 13150
p315
sg8
V209102
p316
sa(dp317
g5
I1
sg6
V199524 1299 136106 38525 9340 13150
p318
sg8
V199524
p319
sa(dp320
g5
I1
sg6
V23106 6939 136106 38525 9340 13150
p321
sg8
V23106
p322
sa(dp323
g5
I0
sg6
V60945 2914 13150
p324
sg8
V60945
p325
sa(dp326
g5
I1
sg6
V8218 6939 136106 38525 9340 13150
p327
sg8
V8218
p328
sa(dp329
g5
I1
sg6
V8218 6939 136106 38525 9340 13150
p330
sg8
V8218
p331
sa(dp332
g5
I1
sg6
V327983 6939 136106 38525 9340 13150
p333
sg8
V327983
p334
sa(dp335
g5
I0
sg6
V15547 3356 2914 13150
p336
sg8
V15547
p337
sa(dp338
g5
I0
sg6
V19151 2914 13150
p339
sg8
V19151
p340
sa(dp341
g5
I0
sg6
V31313 2914 13150
p342
sg8
V31313
p343
sa(dp344
g5
I0
sg6
V12350 1299 2914 13150
p345
sg8
V12350
p346
sa(dp347
g5
I0
sg6
V32097 1299 2914 13150
p348
sg8
V32097
p349
sa(dp350
g5
I0
sg6
V680 1299 2914 13150
p351
sg8
V680
p352
sa(dp353
g5
I1
sg6
V4608 7575 136106 38525 9340 13150
p354
sg8
V4608
p355
sa(dp356
g5
I0
sg6
V198385 15576 3356 2914 13150
p357
sg8
V198385
p358
sa(dp359
g5
I0
sg6
V12779 2914 13150
p360
sg8
V12779
p361
sa(dp362
g5
I1
sg6
V37239 6939 136106 38525 9340 13150
p363
sg8
V37239
p364
sa(dp365
g5
I0
sg6
V42275 25091 2914 13150
p366
sg8
V42275
p367
sa(dp368
g5
I0
sg6
V19151 2914 13150
p369
sg8
V19151
p370
sa(dp371
g5
I0
sg6
V49434 1299 2914 13150
p372
sg8
V49434
p373
sa(dp374
g5
I0
sg6
V9304 3257 2914 13150
p375
sg8
V9304
p376
sasg154
S'0'
p377
sg156
V9340 13150
p378
sg158
L10014932L
sg159
S'0'
p379
sg161
I1
ssL10029271L
(dp380
g2
(lp381
(dp382
g5
I1
sg6
V14907 2914 3356 263482 268286
p383
sg8
V14907
p384
sasg154
S'0'
p385
sg156
V3356 263482
p386
sg158
L10029271L
sg159
S'0'
p387
sg161
I1
ssL10020699L
(dp388
g2
(lp389
(dp390
g5
I1
sg6
V6720 1853 1764 3356 1299 55002 37452
p391
sg8
V6720
p392
sa(dp393
g5
I0
sg6
V48362 3356 6453 37282 37452
p394
sg8
V48362
p395
sasg154
S'0'
p396
sg156
V55002 37452
p397
sg158
L10020699L
sg159
S'0'
p398
sg161
I1
ssL10023196L
(dp399
g2
(lp400
(dp401
g5
I1
sg6
V29691 1299 3257 29119 31577 211808
p402
sg8
V29691
p403
sa(dp404
g5
I1
sg6
V58057 34549 1299 3257 29119 31577 211808
p405
sg8
V58057
p406
sa(dp407
g5
I1
sg6
V34854 1299 3257 29119 31577 211808
p408
sg8
V34854
p409
sa(dp410
g5
I1
sg6
V39351 29119 31577 211808
p411
sg8
V39351
p412
sa(dp413
g5
I1
sg6
V57695 3214 1299 3257 29119 31577 211808
p414
sg8
V57695
p415
sa(dp416
g5
I1
sg6
V20514 1299 3257 29119 31577 211808
p417
sg8
V20514
p418
sa(dp419
g5
I1
sg6
V34549 1299 3257 29119 31577 211808
p420
sg8
V34549
p421
sa(dp422
g5
I1
sg6
V139589 49752 137490 43350 29119 31577 211808
p423
sg8
V139589
p424
sa(dp425
g5
I1
sg6
V51999 39533 13030 1299 3257 29119 31577 211808
p426
sg8
V51999
p427
sa(dp428
g5
I1
sg6
V51873 9002 3356 3257 29119 31577 211808
p429
sg8
V51873
p430
sa(dp431
g5
I1
sg6
V48362 3356 3257 29119 31577 211808
p432
sg8
V48362
p433
sa(dp434
g5
I1
sg6
V34553 44684 1299 3257 29119 31577 211808
p435
sg8
V34553
p436
sa(dp437
g5
I1
sg6
V328474 328112 37271 3257 29119 31577 211808
p438
sg8
V328474
p439
sa(dp440
g5
I1
sg6
V47147 1299 3257 29119 31577 211808
p441
sg8
V47147
p442
sa(dp443
g5
I1
sg6
V60945 1299 3257 29119 31577 211808
p444
sg8
V60945
p445
sa(dp446
g5
I1
sg6
V29467 2914 3257 29119 31577 211808
p447
sg8
V29467
p448
sa(dp449
g5
I1
sg6
V12779 2914 3257 29119 31577 211808
p450
sg8
V12779
p451
sa(dp452
g5
I1
sg6
V49697 61438 39912 1299 3257 29119 31577 211808
p453
sg8
V49697
p454
sa(dp455
g5
I1
sg6
V199524 174 3257 29119 31577 211808
p456
sg8
V199524
p457
sa(dp458
g5
I1
sg6
V41722 20764 174 3257 29119 31577 211808
p459
sg8
V41722
p460
sasg154
S'174'
p461
sg156
g277
sg158
L10023196L
sg159
S'211808'
p462
sg161
I0
ss.